target datalayout = "e-m:e-p270:32:32-p271:32:32-p272:64:64-i64:64-i128:128-f80:128-n8:16:32:64-S128"
target triple = "x86_64-pc-linux-gnu"

%struct.mbedtls_mpi = type { ptr, i16, i16 }

; Function Attrs: inlinehint nounwind uwtable
define internal i64 @mpi_sint_abs(i64 noundef %0) #2 {
  %2 = alloca i64, align 8
  %3 = alloca i64, align 8
  store i64 %0, ptr %3, align 8, !tbaa !15
  %4 = load i64, ptr %3, align 8, !tbaa !15
  %5 = icmp sge i64 %4, 0
  br i1 %5, label %6, label %8

6:                                                ; preds = %1
  %7 = load i64, ptr %3, align 8, !tbaa !15
  store i64 %7, ptr %2, align 8
  br label %11

8:                                                ; preds = %1
  %9 = load i64, ptr %3, align 8, !tbaa !15
  %10 = sub i64 0, %9
  store i64 %10, ptr %2, align 8
  br label %11

11:                                               ; preds = %8, %6
  %12 = load i64, ptr %2, align 8
  ret i64 %12
}

; Function Attrs: nounwind uwtable
define hidden i32 @mbedtls_mpi_sub_mpi(ptr noundef %0, ptr noundef %1, ptr noundef %2) #0 {
  %4 = alloca ptr, align 8
  %5 = alloca ptr, align 8
  %6 = alloca ptr, align 8
  store ptr %0, ptr %4, align 8, !tbaa !3
  store ptr %1, ptr %5, align 8, !tbaa !3
  store ptr %2, ptr %6, align 8, !tbaa !3
  %7 = load ptr, ptr %4, align 8, !tbaa !3
  %8 = load ptr, ptr %5, align 8, !tbaa !3
  %9 = load ptr, ptr %6, align 8, !tbaa !3
  %10 = call i32 @add_sub_mpi(ptr noundef %7, ptr noundef %8, ptr noundef %9, i32 noundef -1)
  ret i32 %10
}

; Function Attrs: nounwind uwtable
define hidden i32 @mbedtls_mpi_cmp_mpi(ptr noundef %0, ptr noundef %1) #0 {
  %3 = alloca i32, align 4
  %4 = alloca ptr, align 8
  %5 = alloca ptr, align 8
  %6 = alloca i64, align 8
  %7 = alloca i64, align 8
  %8 = alloca i32, align 4
  store ptr %0, ptr %4, align 8, !tbaa !3
  store ptr %1, ptr %5, align 8, !tbaa !3
  call void @llvm.lifetime.start.p0(i64 8, ptr %6) #9
  call void @llvm.lifetime.start.p0(i64 8, ptr %7) #9
  %9 = load ptr, ptr %4, align 8, !tbaa !3
  %10 = getelementptr inbounds nuw %struct.mbedtls_mpi, ptr %9, i32 0, i32 2
  %11 = load i16, ptr %10, align 2, !tbaa !10
  %12 = zext i16 %11 to i64
  store i64 %12, ptr %6, align 8, !tbaa !15
  br label %13

13:                                               ; preds = %27, %2
  %14 = load i64, ptr %6, align 8, !tbaa !15
  %15 = icmp ugt i64 %14, 0
  br i1 %15, label %16, label %30

16:                                               ; preds = %13
  %17 = load ptr, ptr %4, align 8, !tbaa !3
  %18 = getelementptr inbounds nuw %struct.mbedtls_mpi, ptr %17, i32 0, i32 0
  %19 = load ptr, ptr %18, align 8, !tbaa !17
  %20 = load i64, ptr %6, align 8, !tbaa !15
  %21 = sub i64 %20, 1
  %22 = getelementptr inbounds nuw i64, ptr %19, i64 %21
  %23 = load i64, ptr %22, align 8, !tbaa !15
  %24 = icmp ne i64 %23, 0
  br i1 %24, label %25, label %26

25:                                               ; preds = %16
  br label %30

26:                                               ; preds = %16
  br label %27

27:                                               ; preds = %26
  %28 = load i64, ptr %6, align 8, !tbaa !15
  %29 = add i64 %28, -1
  store i64 %29, ptr %6, align 8, !tbaa !15
  br label %13, !llvm.loop !47

30:                                               ; preds = %25, %13
  %31 = load ptr, ptr %5, align 8, !tbaa !3
  %32 = getelementptr inbounds nuw %struct.mbedtls_mpi, ptr %31, i32 0, i32 2
  %33 = load i16, ptr %32, align 2, !tbaa !10
  %34 = zext i16 %33 to i64
  store i64 %34, ptr %7, align 8, !tbaa !15
  br label %35

35:                                               ; preds = %49, %30
  %36 = load i64, ptr %7, align 8, !tbaa !15
  %37 = icmp ugt i64 %36, 0
  br i1 %37, label %38, label %52

38:                                               ; preds = %35
  %39 = load ptr, ptr %5, align 8, !tbaa !3
  %40 = getelementptr inbounds nuw %struct.mbedtls_mpi, ptr %39, i32 0, i32 0
  %41 = load ptr, ptr %40, align 8, !tbaa !17
  %42 = load i64, ptr %7, align 8, !tbaa !15
  %43 = sub i64 %42, 1
  %44 = getelementptr inbounds nuw i64, ptr %41, i64 %43
  %45 = load i64, ptr %44, align 8, !tbaa !15
  %46 = icmp ne i64 %45, 0
  br i1 %46, label %47, label %48

47:                                               ; preds = %38
  br label %52

48:                                               ; preds = %38
  br label %49

49:                                               ; preds = %48
  %50 = load i64, ptr %7, align 8, !tbaa !15
  %51 = add i64 %50, -1
  store i64 %51, ptr %7, align 8, !tbaa !15
  br label %35, !llvm.loop !48

52:                                               ; preds = %47, %35
  %53 = load i64, ptr %6, align 8, !tbaa !15
  %54 = icmp eq i64 %53, 0
  br i1 %54, label %55, label %59

55:                                               ; preds = %52
  %56 = load i64, ptr %7, align 8, !tbaa !15
  %57 = icmp eq i64 %56, 0
  br i1 %57, label %58, label %59

58:                                               ; preds = %55
  store i32 0, ptr %3, align 4
  store i32 1, ptr %8, align 4
  br label %156

59:                                               ; preds = %55, %52
  %60 = load i64, ptr %6, align 8, !tbaa !15
  %61 = load i64, ptr %7, align 8, !tbaa !15
  %62 = icmp ugt i64 %60, %61
  br i1 %62, label %63, label %68

63:                                               ; preds = %59
  %64 = load ptr, ptr %4, align 8, !tbaa !3
  %65 = getelementptr inbounds nuw %struct.mbedtls_mpi, ptr %64, i32 0, i32 1
  %66 = load i16, ptr %65, align 8, !tbaa !14
  %67 = sext i16 %66 to i32
  store i32 %67, ptr %3, align 4
  store i32 1, ptr %8, align 4
  br label %156

68:                                               ; preds = %59
  %69 = load i64, ptr %7, align 8, !tbaa !15
  %70 = load i64, ptr %6, align 8, !tbaa !15
  %71 = icmp ugt i64 %69, %70
  br i1 %71, label %72, label %78

72:                                               ; preds = %68
  %73 = load ptr, ptr %5, align 8, !tbaa !3
  %74 = getelementptr inbounds nuw %struct.mbedtls_mpi, ptr %73, i32 0, i32 1
  %75 = load i16, ptr %74, align 8, !tbaa !14
  %76 = sext i16 %75 to i32
  %77 = sub nsw i32 0, %76
  store i32 %77, ptr %3, align 4
  store i32 1, ptr %8, align 4
  br label %156

78:                                               ; preds = %68
  %79 = load ptr, ptr %4, align 8, !tbaa !3
  %80 = getelementptr inbounds nuw %struct.mbedtls_mpi, ptr %79, i32 0, i32 1
  %81 = load i16, ptr %80, align 8, !tbaa !14
  %82 = sext i16 %81 to i32
  %83 = icmp sgt i32 %82, 0
  br i1 %83, label %84, label %91

84:                                               ; preds = %78
  %85 = load ptr, ptr %5, align 8, !tbaa !3
  %86 = getelementptr inbounds nuw %struct.mbedtls_mpi, ptr %85, i32 0, i32 1
  %87 = load i16, ptr %86, align 8, !tbaa !14
  %88 = sext i16 %87 to i32
  %89 = icmp slt i32 %88, 0
  br i1 %89, label %90, label %91

90:                                               ; preds = %84
  store i32 1, ptr %3, align 4
  store i32 1, ptr %8, align 4
  br label %156

91:                                               ; preds = %84, %78
  %92 = load ptr, ptr %5, align 8, !tbaa !3
  %93 = getelementptr inbounds nuw %struct.mbedtls_mpi, ptr %92, i32 0, i32 1
  %94 = load i16, ptr %93, align 8, !tbaa !14
  %95 = sext i16 %94 to i32
  %96 = icmp sgt i32 %95, 0
  br i1 %96, label %97, label %104

97:                                               ; preds = %91
  %98 = load ptr, ptr %4, align 8, !tbaa !3
  %99 = getelementptr inbounds nuw %struct.mbedtls_mpi, ptr %98, i32 0, i32 1
  %100 = load i16, ptr %99, align 8, !tbaa !14
  %101 = sext i16 %100 to i32
  %102 = icmp slt i32 %101, 0
  br i1 %102, label %103, label %104

103:                                              ; preds = %97
  store i32 -1, ptr %3, align 4
  store i32 1, ptr %8, align 4
  br label %156

104:                                              ; preds = %97, %91
  br label %105

105:                                              ; preds = %152, %104
  %106 = load i64, ptr %6, align 8, !tbaa !15
  %107 = icmp ugt i64 %106, 0
  br i1 %107, label %108, label %155

108:                                              ; preds = %105
  %109 = load ptr, ptr %4, align 8, !tbaa !3
  %110 = getelementptr inbounds nuw %struct.mbedtls_mpi, ptr %109, i32 0, i32 0
  %111 = load ptr, ptr %110, align 8, !tbaa !17
  %112 = load i64, ptr %6, align 8, !tbaa !15
  %113 = sub i64 %112, 1
  %114 = getelementptr inbounds nuw i64, ptr %111, i64 %113
  %115 = load i64, ptr %114, align 8, !tbaa !15
  %116 = load ptr, ptr %5, align 8, !tbaa !3
  %117 = getelementptr inbounds nuw %struct.mbedtls_mpi, ptr %116, i32 0, i32 0
  %118 = load ptr, ptr %117, align 8, !tbaa !17
  %119 = load i64, ptr %6, align 8, !tbaa !15
  %120 = sub i64 %119, 1
  %121 = getelementptr inbounds nuw i64, ptr %118, i64 %120
  %122 = load i64, ptr %121, align 8, !tbaa !15
  %123 = icmp ugt i64 %115, %122
  br i1 %123, label %124, label %129

124:                                              ; preds = %108
  %125 = load ptr, ptr %4, align 8, !tbaa !3
  %126 = getelementptr inbounds nuw %struct.mbedtls_mpi, ptr %125, i32 0, i32 1
  %127 = load i16, ptr %126, align 8, !tbaa !14
  %128 = sext i16 %127 to i32
  store i32 %128, ptr %3, align 4
  store i32 1, ptr %8, align 4
  br label %156

129:                                              ; preds = %108
  %130 = load ptr, ptr %4, align 8, !tbaa !3
  %131 = getelementptr inbounds nuw %struct.mbedtls_mpi, ptr %130, i32 0, i32 0
  %132 = load ptr, ptr %131, align 8, !tbaa !17
  %133 = load i64, ptr %6, align 8, !tbaa !15
  %134 = sub i64 %133, 1
  %135 = getelementptr inbounds nuw i64, ptr %132, i64 %134
  %136 = load i64, ptr %135, align 8, !tbaa !15
  %137 = load ptr, ptr %5, align 8, !tbaa !3
  %138 = getelementptr inbounds nuw %struct.mbedtls_mpi, ptr %137, i32 0, i32 0
  %139 = load ptr, ptr %138, align 8, !tbaa !17
  %140 = load i64, ptr %6, align 8, !tbaa !15
  %141 = sub i64 %140, 1
  %142 = getelementptr inbounds nuw i64, ptr %139, i64 %141
  %143 = load i64, ptr %142, align 8, !tbaa !15
  %144 = icmp ult i64 %136, %143
  br i1 %144, label %145, label %151

145:                                              ; preds = %129
  %146 = load ptr, ptr %4, align 8, !tbaa !3
  %147 = getelementptr inbounds nuw %struct.mbedtls_mpi, ptr %146, i32 0, i32 1
  %148 = load i16, ptr %147, align 8, !tbaa !14
  %149 = sext i16 %148 to i32
  %150 = sub nsw i32 0, %149
  store i32 %150, ptr %3, align 4
  store i32 1, ptr %8, align 4
  br label %156

151:                                              ; preds = %129
  br label %152

152:                                              ; preds = %151
  %153 = load i64, ptr %6, align 8, !tbaa !15
  %154 = add i64 %153, -1
  store i64 %154, ptr %6, align 8, !tbaa !15
  br label %105, !llvm.loop !49

155:                                              ; preds = %105
  store i32 0, ptr %3, align 4
  store i32 1, ptr %8, align 4
  br label %156

156:                                              ; preds = %155, %145, %124, %103, %90, %72, %63, %58
  call void @llvm.lifetime.end.p0(i64 8, ptr %7) #9
  call void @llvm.lifetime.end.p0(i64 8, ptr %6) #9
  %157 = load i32, ptr %3, align 4
  ret i32 %157
}

; Function Attrs: nounwind uwtable
define hidden i32 @mbedtls_mpi_add_mpi(ptr noundef %0, ptr noundef %1, ptr noundef %2) #0 {
  %4 = alloca ptr, align 8
  %5 = alloca ptr, align 8
  %6 = alloca ptr, align 8
  store ptr %0, ptr %4, align 8, !tbaa !3
  store ptr %1, ptr %5, align 8, !tbaa !3
  store ptr %2, ptr %6, align 8, !tbaa !3
  %7 = load ptr, ptr %4, align 8, !tbaa !3
  %8 = load ptr, ptr %5, align 8, !tbaa !3
  %9 = load ptr, ptr %6, align 8, !tbaa !3
  %10 = call i32 @add_sub_mpi(ptr noundef %7, ptr noundef %8, ptr noundef %9, i32 noundef 1)
  ret i32 %10
}

; Function Attrs: nounwind uwtable
define hidden i32 @mbedtls_mpi_cmp_int(ptr noundef %0, i64 noundef %1) #0 {
  %3 = alloca ptr, align 8
  %4 = alloca i64, align 8
  %5 = alloca %struct.mbedtls_mpi, align 8
  %6 = alloca [1 x i64], align 8
  store ptr %0, ptr %3, align 8, !tbaa !3
  store i64 %1, ptr %4, align 8, !tbaa !15
  call void @llvm.lifetime.start.p0(i64 16, ptr %5) #9
  call void @llvm.lifetime.start.p0(i64 8, ptr %6) #9
  %7 = load i64, ptr %4, align 8, !tbaa !15
  %8 = call i64 @mpi_sint_abs(i64 noundef %7)
  %9 = getelementptr inbounds [1 x i64], ptr %6, i64 0, i64 0
  store i64 %8, ptr %9, align 8, !tbaa !15
  %10 = load i64, ptr %4, align 8, !tbaa !15
  %11 = lshr i64 %10, 63
  %12 = mul nsw i64 %11, -2
  %13 = add nsw i64 %12, 1
  %14 = trunc i64 %13 to i16
  %15 = getelementptr inbounds nuw %struct.mbedtls_mpi, ptr %5, i32 0, i32 1
  store i16 %14, ptr %15, align 8, !tbaa !14
  %16 = getelementptr inbounds nuw %struct.mbedtls_mpi, ptr %5, i32 0, i32 2
  store i16 1, ptr %16, align 2, !tbaa !10
  %17 = getelementptr inbounds [1 x i64], ptr %6, i64 0, i64 0
  %18 = getelementptr inbounds nuw %struct.mbedtls_mpi, ptr %5, i32 0, i32 0
  store ptr %17, ptr %18, align 8, !tbaa !17
  %19 = load ptr, ptr %3, align 8, !tbaa !3
  %20 = call i32 @mbedtls_mpi_cmp_mpi(ptr noundef %19, ptr noundef %5)
  call void @llvm.lifetime.end.p0(i64 8, ptr %6) #9
  call void @llvm.lifetime.end.p0(i64 16, ptr %5) #9
  ret i32 %20
}

; Function Attrs: nounwind uwtable
define hidden i32 @mbedtls_mpi_mod_mpi(ptr noundef %0, ptr noundef %1, ptr noundef %2) #0 {
  %4 = alloca i32, align 4
  %5 = alloca ptr, align 8
  %6 = alloca ptr, align 8
  %7 = alloca ptr, align 8
  %8 = alloca i32, align 4
  %9 = alloca i32, align 4
  store ptr %0, ptr %5, align 8, !tbaa !3
  store ptr %1, ptr %6, align 8, !tbaa !3
  store ptr %2, ptr %7, align 8, !tbaa !3
  call void @llvm.lifetime.start.p0(i64 4, ptr %8) #9
  store i32 -110, ptr %8, align 4, !tbaa !19
  %10 = load ptr, ptr %7, align 8, !tbaa !3
  %11 = call i32 @mbedtls_mpi_cmp_int(ptr noundef %10, i64 noundef 0)
  %12 = icmp slt i32 %11, 0
  br i1 %12, label %13, label %14

13:                                               ; preds = %3
  store i32 -10, ptr %4, align 4
  store i32 1, ptr %9, align 4
  br label %60

14:                                               ; preds = %3
  br label %15

15:                                               ; preds = %14
  %16 = load ptr, ptr %5, align 8, !tbaa !3
  %17 = load ptr, ptr %6, align 8, !tbaa !3
  %18 = load ptr, ptr %7, align 8, !tbaa !3
  %19 = call i32 @mbedtls_mpi_div_mpi(ptr noundef null, ptr noundef %16, ptr noundef %17, ptr noundef %18)
  store i32 %19, ptr %8, align 4, !tbaa !19
  %20 = icmp ne i32 %19, 0
  br i1 %20, label %21, label %22

21:                                               ; preds = %15
  br label %58

22:                                               ; preds = %15
  br label %23

23:                                               ; preds = %22
  br label %24

24:                                               ; preds = %23
  br label %25

25:                                               ; preds = %39, %24
  %26 = load ptr, ptr %5, align 8, !tbaa !3
  %27 = call i32 @mbedtls_mpi_cmp_int(ptr noundef %26, i64 noundef 0)
  %28 = icmp slt i32 %27, 0
  br i1 %28, label %29, label %40

29:                                               ; preds = %25
  br label %30

30:                                               ; preds = %29
  %31 = load ptr, ptr %5, align 8, !tbaa !3
  %32 = load ptr, ptr %5, align 8, !tbaa !3
  %33 = load ptr, ptr %7, align 8, !tbaa !3
  %34 = call i32 @mbedtls_mpi_add_mpi(ptr noundef %31, ptr noundef %32, ptr noundef %33)
  store i32 %34, ptr %8, align 4, !tbaa !19
  %35 = icmp ne i32 %34, 0
  br i1 %35, label %36, label %37

36:                                               ; preds = %30
  br label %58

37:                                               ; preds = %30
  br label %38

38:                                               ; preds = %37
  br label %39

39:                                               ; preds = %38
  br label %25, !llvm.loop !60

40:                                               ; preds = %25
  br label %41

41:                                               ; preds = %56, %40
  %42 = load ptr, ptr %5, align 8, !tbaa !3
  %43 = load ptr, ptr %7, align 8, !tbaa !3
  %44 = call i32 @mbedtls_mpi_cmp_mpi(ptr noundef %42, ptr noundef %43)
  %45 = icmp sge i32 %44, 0
  br i1 %45, label %46, label %57

46:                                               ; preds = %41
  br label %47

47:                                               ; preds = %46
  %48 = load ptr, ptr %5, align 8, !tbaa !3
  %49 = load ptr, ptr %5, align 8, !tbaa !3
  %50 = load ptr, ptr %7, align 8, !tbaa !3
  %51 = call i32 @mbedtls_mpi_sub_mpi(ptr noundef %48, ptr noundef %49, ptr noundef %50)
  store i32 %51, ptr %8, align 4, !tbaa !19
  %52 = icmp ne i32 %51, 0
  br i1 %52, label %53, label %54

53:                                               ; preds = %47
  br label %58

54:                                               ; preds = %47
  br label %55

55:                                               ; preds = %54
  br label %56

56:                                               ; preds = %55
  br label %41, !llvm.loop !61

57:                                               ; preds = %41
  br label %58

58:                                               ; preds = %57, %53, %36, %21
  %59 = load i32, ptr %8, align 4, !tbaa !19
  store i32 %59, ptr %4, align 4
  store i32 1, ptr %9, align 4
  br label %60

60:                                               ; preds = %58, %13
  call void @llvm.lifetime.end.p0(i64 4, ptr %8) #9
  %61 = load i32, ptr %4, align 4
  ret i32 %61
}