; Function Attrs: nounwind uwtable
define hidden range(i32 -16, 1) i32 @mbedtls_mpi_mod_mpi(ptr noundef %0, ptr noundef %1, ptr noundef %2) local_unnamed_addr #0 {
  %4 = getelementptr inbounds nuw i8, ptr %2, i64 10
  %5 = load i16, ptr %4, align 2, !tbaa !3
  %.not44.i.i = icmp eq i16 %5, 0
  br i1 %.not44.i.i, label %mbedtls_mpi_cmp_int.exit.thread, label %.lr.ph.i.i

.lr.ph.i.i:                                       ; preds = %3
  %6 = zext i16 %5 to i64
  %7 = load ptr, ptr %2, align 8, !tbaa !12
  %invariant.gep.i.i = getelementptr i8, ptr %7, i64 -8
  br label %8

8:                                                ; preds = %10, %.lr.ph.i.i
  %.03545.i.i = phi i64 [ %6, %.lr.ph.i.i ], [ %11, %10 ]
  %gep.i.i = getelementptr i64, ptr %invariant.gep.i.i, i64 %.03545.i.i
  %9 = load i64, ptr %gep.i.i, align 8, !tbaa !17
  %.not39.i.i = icmp eq i64 %9, 0
  br i1 %.not39.i.i, label %10, label %.lr.ph51.i.i

10:                                               ; preds = %8
  %11 = add nsw i64 %.03545.i.i, -1
  %.not.i.i = icmp eq i64 %11, 0
  br i1 %.not.i.i, label %mbedtls_mpi_cmp_int.exit.thread, label %8, !llvm.loop !31

.lr.ph51.i.i:                                     ; preds = %8
  %or.cond.i.i = icmp eq i64 %.03545.i.i, 0
  br i1 %or.cond.i.i, label %mbedtls_mpi_cmp_int.exit.thread, label %mbedtls_mpi_cmp_int.exit

mbedtls_mpi_cmp_int.exit:                         ; preds = %.lr.ph51.i.i
  %12 = getelementptr inbounds nuw i8, ptr %2, i64 8
  %13 = load i16, ptr %12, align 8, !tbaa !10
  %14 = icmp slt i16 %13, 0
  br i1 %14, label %mbedtls_mpi_cmp_mpi.exit.thread41, label %mbedtls_mpi_cmp_int.exit.thread

mbedtls_mpi_cmp_int.exit.thread:                  ; preds = %10, %3, %.lr.ph51.i.i, %mbedtls_mpi_cmp_int.exit
  %15 = tail call i32 @mbedtls_mpi_div_mpi(ptr noundef null, ptr noundef %0, ptr noundef %1, ptr noundef %2)
  %.not = icmp eq i32 %15, 0
  br i1 %.not, label %.preheader43, label %mbedtls_mpi_cmp_mpi.exit.thread41

.preheader43:                                     ; preds = %mbedtls_mpi_cmp_int.exit.thread
  %16 = getelementptr inbounds nuw i8, ptr %0, i64 10
  %17 = getelementptr inbounds nuw i8, ptr %0, i64 8
  br label %18

18:                                               ; preds = %.preheader43, %28
  %19 = load i16, ptr %16, align 2, !tbaa !3
  %.not44.i.i23 = icmp eq i16 %19, 0
  br i1 %.not44.i.i23, label %.preheader, label %.lr.ph.i.i24

.lr.ph.i.i24:                                     ; preds = %18
  %20 = zext i16 %19 to i64
  %21 = load ptr, ptr %0, align 8, !tbaa !12
  %invariant.gep.i.i25 = getelementptr i8, ptr %21, i64 -8
  br label %22

22:                                               ; preds = %24, %.lr.ph.i.i24
  %.03545.i.i26 = phi i64 [ %20, %.lr.ph.i.i24 ], [ %25, %24 ]
  %gep.i.i27 = getelementptr i64, ptr %invariant.gep.i.i25, i64 %.03545.i.i26
  %23 = load i64, ptr %gep.i.i27, align 8, !tbaa !17
  %.not39.i.i28 = icmp eq i64 %23, 0
  br i1 %.not39.i.i28, label %24, label %.lr.ph51.i.i29

24:                                               ; preds = %22
  %25 = add nsw i64 %.03545.i.i26, -1
  %.not.i.i33 = icmp eq i64 %25, 0
  br i1 %.not.i.i33, label %.preheader, label %22, !llvm.loop !31

.lr.ph51.i.i29:                                   ; preds = %22
  %or.cond.i.i31 = icmp eq i64 %.03545.i.i26, 0
  br i1 %or.cond.i.i31, label %.preheader, label %mbedtls_mpi_cmp_int.exit34

mbedtls_mpi_cmp_int.exit34:                       ; preds = %.lr.ph51.i.i29
  %26 = load i16, ptr %17, align 8, !tbaa !10
  %27 = icmp slt i16 %26, 0
  br i1 %27, label %28, label %.preheader

28:                                               ; preds = %mbedtls_mpi_cmp_int.exit34
  %29 = tail call fastcc range(i32 -16, 1) i32 @add_sub_mpi(ptr noundef nonnull %0, ptr noundef nonnull %0, ptr noundef %2, i32 noundef 1)
  %.not22 = icmp eq i32 %29, 0
  br i1 %.not22, label %18, label %mbedtls_mpi_cmp_mpi.exit.thread41, !llvm.loop !47

.preheader:                                       ; preds = %mbedtls_mpi_cmp_int.exit34, %18, %.lr.ph51.i.i29, %24
  %30 = getelementptr inbounds nuw i8, ptr %2, i64 8
  br label %31

31:                                               ; preds = %.preheader, %mbedtls_mpi_cmp_mpi.exit.thread
  %32 = load i16, ptr %16, align 2, !tbaa !3
  %.not44.i = icmp eq i16 %32, 0
  br i1 %.not44.i, label %._crit_edge.i, label %.lr.ph.i

.lr.ph.i:                                         ; preds = %31
  %33 = zext i16 %32 to i64
  %34 = load ptr, ptr %0, align 8, !tbaa !12
  %invariant.gep.i = getelementptr i8, ptr %34, i64 -8
  br label %35

35:                                               ; preds = %37, %.lr.ph.i
  %.03545.i = phi i64 [ %33, %.lr.ph.i ], [ %38, %37 ]
  %gep.i = getelementptr i64, ptr %invariant.gep.i, i64 %.03545.i
  %36 = load i64, ptr %gep.i, align 8, !tbaa !17
  %.not39.i = icmp eq i64 %36, 0
  br i1 %.not39.i, label %37, label %._crit_edge.i

37:                                               ; preds = %35
  %38 = add nsw i64 %.03545.i, -1
  %.not.i = icmp eq i64 %38, 0
  br i1 %.not.i, label %._crit_edge.i, label %35, !llvm.loop !31

._crit_edge.i:                                    ; preds = %37, %35, %31
  %.035.lcssa.i = phi i64 [ 0, %31 ], [ 0, %37 ], [ %.03545.i, %35 ]
  %39 = load i16, ptr %4, align 2, !tbaa !3
  %.not4048.i = icmp eq i16 %39, 0
  br i1 %.not4048.i, label %._crit_edge52.i, label %.lr.ph51.i

.lr.ph51.i:                                       ; preds = %._crit_edge.i
  %40 = zext i16 %39 to i64
  %41 = load ptr, ptr %2, align 8, !tbaa !12
  %invariant.gep56.i = getelementptr i8, ptr %41, i64 -8
  br label %42

42:                                               ; preds = %44, %.lr.ph51.i
  %.049.i = phi i64 [ %40, %.lr.ph51.i ], [ %45, %44 ]
  %gep57.i = getelementptr i64, ptr %invariant.gep56.i, i64 %.049.i
  %43 = load i64, ptr %gep57.i, align 8, !tbaa !17
  %.not41.i = icmp eq i64 %43, 0
  br i1 %.not41.i, label %44, label %._crit_edge52.i

44:                                               ; preds = %42
  %45 = add nsw i64 %.049.i, -1
  %.not40.i = icmp eq i64 %45, 0
  br i1 %.not40.i, label %._crit_edge52.i, label %42, !llvm.loop !37

._crit_edge52.i:                                  ; preds = %44, %42, %._crit_edge.i
  %.0.lcssa.i = phi i64 [ 0, %._crit_edge.i ], [ 0, %44 ], [ %.049.i, %42 ]
  %46 = or i64 %.0.lcssa.i, %.035.lcssa.i
  %or.cond.i = icmp eq i64 %46, 0
  br i1 %or.cond.i, label %mbedtls_mpi_cmp_mpi.exit.thread, label %47

47:                                               ; preds = %._crit_edge52.i
  %48 = icmp ugt i64 %.035.lcssa.i, %.0.lcssa.i
  br i1 %48, label %49, label %52

49:                                               ; preds = %47
  %50 = load i16, ptr %17, align 8, !tbaa !10
  %51 = sext i16 %50 to i32
  br label %mbedtls_mpi_cmp_mpi.exit

52:                                               ; preds = %47
  %53 = icmp ugt i64 %.0.lcssa.i, %.035.lcssa.i
  br i1 %53, label %54, label %58

54:                                               ; preds = %52
  %55 = load i16, ptr %30, align 8, !tbaa !10
  %56 = sext i16 %55 to i32
  %57 = sub nsw i32 0, %56
  br label %mbedtls_mpi_cmp_mpi.exit

58:                                               ; preds = %52
  %59 = load i16, ptr %17, align 8, !tbaa !10
  %60 = icmp sgt i16 %59, 0
  %61 = load i16, ptr %30, align 8, !tbaa !10
  br i1 %60, label %62, label %64

62:                                               ; preds = %58
  %63 = icmp slt i16 %61, 0
  br i1 %63, label %mbedtls_mpi_cmp_mpi.exit.thread, label %.preheader.i.preheader

64:                                               ; preds = %58
  %65 = icmp sgt i16 %61, 0
  %66 = icmp ne i16 %59, 0
  %or.cond43.i = and i1 %66, %65
  br i1 %or.cond43.i, label %mbedtls_mpi_cmp_mpi.exit.thread41, label %.preheader.i.preheader

.preheader.i.preheader:                           ; preds = %64, %62
  br label %.preheader.i

.preheader.i:                                     ; preds = %.preheader.i.preheader, %78
  %.1.i = phi i64 [ %69, %78 ], [ %.035.lcssa.i, %.preheader.i.preheader ]
  %.not42.i = icmp eq i64 %.1.i, 0
  br i1 %.not42.i, label %mbedtls_mpi_cmp_mpi.exit.thread, label %67

67:                                               ; preds = %.preheader.i
  %68 = load ptr, ptr %0, align 8, !tbaa !12
  %69 = add nsw i64 %.1.i, -1
  %70 = getelementptr inbounds nuw i64, ptr %68, i64 %69
  %71 = load i64, ptr %70, align 8, !tbaa !17
  %72 = load ptr, ptr %2, align 8, !tbaa !12
  %73 = getelementptr inbounds nuw i64, ptr %72, i64 %69
  %74 = load i64, ptr %73, align 8, !tbaa !17
  %75 = icmp ugt i64 %71, %74
  br i1 %75, label %76, label %78

76:                                               ; preds = %67
  %77 = sext i16 %59 to i32
  br label %mbedtls_mpi_cmp_mpi.exit

78:                                               ; preds = %67
  %79 = icmp ult i64 %71, %74
  br i1 %79, label %80, label %.preheader.i, !llvm.loop !38

80:                                               ; preds = %78
  %81 = sext i16 %59 to i32
  %82 = sub nsw i32 0, %81
  br label %mbedtls_mpi_cmp_mpi.exit

mbedtls_mpi_cmp_mpi.exit:                         ; preds = %49, %54, %76, %80
  %.036.i = phi i32 [ %51, %49 ], [ %57, %54 ], [ %77, %76 ], [ %82, %80 ]
  %83 = icmp sgt i32 %.036.i, -1
  br i1 %83, label %mbedtls_mpi_cmp_mpi.exit.thread, label %mbedtls_mpi_cmp_mpi.exit.thread41

mbedtls_mpi_cmp_mpi.exit.thread:                  ; preds = %.preheader.i, %62, %._crit_edge52.i, %mbedtls_mpi_cmp_mpi.exit
  %84 = tail call fastcc range(i32 -16, 1) i32 @add_sub_mpi(ptr noundef %0, ptr noundef %0, ptr noundef %2, i32 noundef -1)
  %.not21 = icmp eq i32 %84, 0
  br i1 %.not21, label %31, label %mbedtls_mpi_cmp_mpi.exit.thread41, !llvm.loop !48

mbedtls_mpi_cmp_mpi.exit.thread41:                ; preds = %28, %64, %mbedtls_mpi_cmp_mpi.exit.thread, %mbedtls_mpi_cmp_mpi.exit, %mbedtls_mpi_cmp_int.exit.thread, %mbedtls_mpi_cmp_int.exit
  %.014 = phi i32 [ -10, %mbedtls_mpi_cmp_int.exit ], [ %15, %mbedtls_mpi_cmp_int.exit.thread ], [ 0, %64 ], [ 0, %mbedtls_mpi_cmp_mpi.exit ], [ %84, %mbedtls_mpi_cmp_mpi.exit.thread ], [ %29, %28 ]
  ret i32 %.014
}